target datalayout = "e-m:e-p270:32:32-p271:32:32-p272:64:64-i64:64-i128:128-f80:128-n8:16:32:64-S128"
target triple = "x86_64-pc-linux-gnu"

%struct._zend_phpdbg_globals = type { [11 x %struct._zend_array], %struct._zend_array, %struct._zend_array, ptr, ptr, %struct.phpdbg_frame_t, i32, ptr, %struct.phpdbg_lexer_data, ptr, %struct.sigaction, i32, i64, %struct.phpdbg_btree, %struct.phpdbg_btree, %struct._zend_array, %struct._zend_array, %struct._zend_array, %struct._zend_array, ptr, ptr, i8, ptr, ptr, ptr, i64, ptr, %struct._zval_struct, i32, i32, i8, i8, ptr, ptr, ptr, %struct._zend_array, ptr, ptr, ptr, [3 x %struct.anon.8], ptr, %struct.anon.9, i64, [2 x ptr], [3 x ptr], ptr, i8, ptr, ptr, [500 x i8], i32, %struct.phpdbg_signal_safe_mem, ptr, i64, ptr, i64 }
%struct.phpdbg_frame_t = type { i32, ptr, ptr }
%struct.phpdbg_lexer_data = type { i32, ptr, ptr, ptr, ptr, i32 }
%struct.sigaction = type { %union.anon.2, %struct.__sigset_t, i32, ptr }
%union.anon.2 = type { ptr }
%struct.__sigset_t = type { [16 x i64] }
%struct.phpdbg_btree = type { i64, i64, i8, ptr }
%struct._zval_struct = type { %union._zend_value, %union.anon.4, %union.anon.7 }
%union._zend_value = type { i64 }
%union.anon.4 = type { i32 }
%union.anon.7 = type { i32 }
%struct._zend_array = type { %struct._zend_refcounted_h, %union.anon.0, i32, %union.anon.1, i32, i32, i32, i32, i64, ptr }
%struct._zend_refcounted_h = type { i32, %union.anon }
%union.anon = type { i32 }
%union.anon.0 = type { i32 }
%union.anon.1 = type { ptr }
%struct.anon.8 = type { i32 }
%struct.anon.9 = type { i8, i32, i32, ptr, i32 }
%struct.phpdbg_signal_safe_mem = type { ptr, i8, ptr, ptr }
%struct._phpdbg_param = type { i32, i64, i64, %struct.anon.10, %struct.anon.11, ptr, i64, ptr, ptr }
%struct.anon.10 = type { ptr, i64 }
%struct.anon.11 = type { ptr, ptr }

@phpdbg_globals = external global %struct._zend_phpdbg_globals, align 8
@.str.126 = private unnamed_addr constant [44 x i8] c"Unsupported parameter type (%s) for command\00", align 1

; Function Attrs: nounwind uwtable
define hidden i32 @phpdbg_do_list(ptr noundef %0) #0 {
  %2 = alloca i32, align 4
  %3 = alloca ptr, align 8
  store ptr %0, ptr %3, align 8
  %4 = load ptr, ptr %3, align 8
  %5 = icmp ne ptr %4, null
  br i1 %5, label %9, label %6

6:                                                ; preds = %1
  %7 = load ptr, ptr %3, align 8
  %8 = call i32 @phpdbg_do_list_lines(ptr noundef %7)
  store i32 %8, ptr %2, align 4
  br label %36

9:                                                ; preds = %1
  %10 = load ptr, ptr %3, align 8
  %11 = getelementptr inbounds %struct._phpdbg_param, ptr %10, i32 0, i32 0
  %12 = load i32, ptr %11, align 8
  switch i32 %12, label %29 [
    i32 6, label %13
    i32 2, label %16
    i32 5, label %19
    i32 4, label %26
  ]

13:                                               ; preds = %9
  %14 = load ptr, ptr %3, align 8
  %15 = call i32 @phpdbg_do_list_lines(ptr noundef %14)
  store i32 %15, ptr %2, align 4
  br label %36

16:                                               ; preds = %9
  %17 = load ptr, ptr %3, align 8
  %18 = call i32 @phpdbg_do_list_lines(ptr noundef %17)
  store i32 %18, ptr %2, align 4
  br label %36

19:                                               ; preds = %9
  %20 = load ptr, ptr %3, align 8
  %21 = getelementptr inbounds %struct._phpdbg_param, ptr %20, i32 0, i32 5
  %22 = load ptr, ptr %21, align 8
  %23 = load ptr, ptr %3, align 8
  %24 = getelementptr inbounds %struct._phpdbg_param, ptr %23, i32 0, i32 6
  %25 = load i64, ptr %24, align 8
  call void @phpdbg_list_function_byname(ptr noundef %22, i64 noundef %25)
  br label %34

26:                                               ; preds = %9
  %27 = load ptr, ptr %3, align 8
  %28 = call i32 @phpdbg_do_list_method(ptr noundef %27)
  store i32 %28, ptr %2, align 4
  br label %36

29:                                               ; preds = %9
  %30 = load i32, ptr getelementptr inbounds (%struct._zend_phpdbg_globals, ptr @phpdbg_globals, i32 0, i32 39, i64 1), align 4
  %31 = load ptr, ptr %3, align 8
  %32 = call ptr @phpdbg_get_param_type(ptr noundef %31)
  %33 = call i32 (i32, i32, ptr, ...) @phpdbg_print(i32 noundef 1, i32 noundef %30, ptr noundef @.str.126, ptr noundef %32)
  br label %34

34:                                               ; preds = %29, %19
  br label %35

35:                                               ; preds = %34
  store i32 0, ptr %2, align 4
  br label %36

36:                                               ; preds = %35, %26, %16, %13, %6
  %37 = load i32, ptr %2, align 4
  ret i32 %37
}