; Function Attrs: nounwind uwtable
define hidden i32 @phpdbg_do_list(ptr noundef %0) #0 {
  %.not = icmp eq ptr %0, null
  br i1 %.not, label %2, label %4

2:                                                ; preds = %1
  %3 = tail call i32 @phpdbg_do_list_lines(ptr noundef null) #24
  br label %21

4:                                                ; preds = %1
  %5 = load i32, ptr %0, align 8
  switch i32 %5, label %17 [
    i32 6, label %6
    i32 2, label %8
    i32 5, label %10
    i32 4, label %15
  ]

6:                                                ; preds = %4
  %7 = tail call i32 @phpdbg_do_list_lines(ptr noundef nonnull %0) #24
  br label %21

8:                                                ; preds = %4
  %9 = tail call i32 @phpdbg_do_list_lines(ptr noundef nonnull %0) #24
  br label %21

10:                                               ; preds = %4
  %11 = getelementptr inbounds i8, ptr %0, i64 56
  %12 = load ptr, ptr %11, align 8
  %13 = getelementptr inbounds i8, ptr %0, i64 64
  %14 = load i64, ptr %13, align 8
  tail call void @phpdbg_list_function_byname(ptr noundef %12, i64 noundef %14) #24
  br label %21

15:                                               ; preds = %4
  %16 = tail call i32 @phpdbg_do_list_method(ptr noundef nonnull %0) #24
  br label %21

17:                                               ; preds = %4
  %18 = load i32, ptr getelementptr inbounds (%struct._zend_phpdbg_globals, ptr @phpdbg_globals, i64 0, i32 39, i64 1), align 4
  %19 = tail call ptr @phpdbg_get_param_type(ptr noundef nonnull %0) #24
  %20 = tail call i32 (i32, i32, ptr, ...) @phpdbg_print(i32 noundef 1, i32 noundef %18, ptr noundef nonnull @.str.126, ptr noundef %19) #24
  br label %21

21:                                               ; preds = %17, %10, %15, %8, %6, %2
  %.0 = phi i32 [ %16, %15 ], [ %9, %8 ], [ %7, %6 ], [ %3, %2 ], [ 0, %10 ], [ 0, %17 ]
  ret i32 %.0
}